target datalayout = "e-m:e-p270:32:32-p271:32:32-p272:64:64-i64:64-i128:128-f80:128-n8:16:32:64-S128"
target triple = "x86_64-pc-linux-gnu"

%"class.rocksdb::Customizable" = type { %"class.rocksdb::Configurable" }
%"class.rocksdb::Configurable" = type { ptr, %"class.std::vector.29" }
%"class.std::vector.29" = type { %"struct.std::_Vector_base.30" }
%"struct.std::_Vector_base.30" = type { %"struct.std::_Vector_base<rocksdb::Configurable::RegisteredOptions, std::allocator<rocksdb::Configurable::RegisteredOptions>>::_Vector_impl" }
%"struct.std::_Vector_base<rocksdb::Configurable::RegisteredOptions, std::allocator<rocksdb::Configurable::RegisteredOptions>>::_Vector_impl" = type { %"struct.std::_Vector_base<rocksdb::Configurable::RegisteredOptions, std::allocator<rocksdb::Configurable::RegisteredOptions>>::_Vector_impl_data" }
%"struct.std::_Vector_base<rocksdb::Configurable::RegisteredOptions, std::allocator<rocksdb::Configurable::RegisteredOptions>>::_Vector_impl_data" = type { ptr, ptr, ptr }
%"class.rocksdb::test::(anonymous namespace)::SpecialSkipListFactory" = type <{ %"class.rocksdb::MemTableRepFactory", %"class.rocksdb::SkipListFactory", i32, [4 x i8] }>
%"class.rocksdb::MemTableRepFactory" = type { %"class.rocksdb::Customizable" }
%"class.rocksdb::SkipListFactory" = type { %"class.rocksdb::MemTableRepFactory", i64 }
%"class.rocksdb::test::(anonymous namespace)::SpecialMemTableRep" = type { %"class.rocksdb::MemTableRep", %"class.std::unique_ptr.224", i32, i32 }
%"class.rocksdb::MemTableRep" = type { ptr, ptr }
%"class.std::unique_ptr.224" = type { %"struct.std::__uniq_ptr_data.225" }
%"struct.std::__uniq_ptr_data.225" = type { %"class.std::__uniq_ptr_impl.226" }
%"class.std::__uniq_ptr_impl.226" = type { %"class.std::tuple.227" }
%"class.std::tuple.227" = type { %"struct.std::_Tuple_impl.228" }
%"struct.std::_Tuple_impl.228" = type { %"struct.std::_Head_base.231" }
%"struct.std::_Head_base.231" = type { ptr }

@_ZTVN7rocksdb11MemTableRepE = external unnamed_addr constant { [26 x ptr] }, align 8

; Function Attrs: mustprogress nounwind uwtable
define linkonce_odr noundef nonnull align 8 dereferenceable(8) ptr @_ZNSt10_Head_baseILm0EPN7rocksdb11MemTableRepELb0EE7_M_headERS3_(ptr noundef nonnull align 8 dereferenceable(8) %0) #3 comdat align 2 {
  %2 = alloca ptr, align 8
  store ptr %0, ptr %2, align 8, !tbaa !1040
  %3 = load ptr, ptr %2, align 8, !tbaa !1040
  %4 = getelementptr inbounds nuw %"struct.std::_Head_base.231", ptr %3, i32 0, i32 0
  ret ptr %4
}

; Function Attrs: mustprogress nounwind uwtable
define linkonce_odr noundef nonnull align 8 dereferenceable(8) ptr @_ZNSt11_Tuple_implILm0EJPN7rocksdb11MemTableRepESt14default_deleteIS1_EEE7_M_headERS5_(ptr noundef nonnull align 8 dereferenceable(8) %0) #3 comdat align 2 {
  %2 = alloca ptr, align 8
  store ptr %0, ptr %2, align 8, !tbaa !1036
  %3 = load ptr, ptr %2, align 8, !tbaa !1036
  %4 = call noundef nonnull align 8 dereferenceable(8) ptr @_ZNSt10_Head_baseILm0EPN7rocksdb11MemTableRepELb0EE7_M_headERS3_(ptr noundef nonnull align 8 dereferenceable(8) %3) #4
  ret ptr %4
}

; Function Attrs: mustprogress nounwind uwtable
define linkonce_odr void @_ZNSt10_Head_baseILm1ESt14default_deleteIN7rocksdb11MemTableRepEELb1EEC2Ev(ptr noundef nonnull align 1 dereferenceable(1) %0) unnamed_addr #3 comdat align 2 {
  %2 = alloca ptr, align 8
  store ptr %0, ptr %2, align 8, !tbaa !1043
  ret void
}

; Function Attrs: mustprogress nounwind uwtable
define linkonce_odr noundef nonnull align 8 dereferenceable(8) ptr @_ZSt12__get_helperILm0EPN7rocksdb11MemTableRepEJSt14default_deleteIS1_EEERT0_RSt11_Tuple_implIXT_EJS5_DpT1_EE(ptr noundef nonnull align 8 dereferenceable(8) %0) #3 comdat {
  %2 = alloca ptr, align 8
  store ptr %0, ptr %2, align 8, !tbaa !1036
  %3 = load ptr, ptr %2, align 8, !tbaa !1036
  %4 = call noundef nonnull align 8 dereferenceable(8) ptr @_ZNSt11_Tuple_implILm0EJPN7rocksdb11MemTableRepESt14default_deleteIS1_EEE7_M_headERS5_(ptr noundef nonnull align 8 dereferenceable(8) %3) #4
  ret ptr %4
}

; Function Attrs: mustprogress nounwind uwtable
define linkonce_odr void @_ZNSt10_Head_baseILm0EPN7rocksdb11MemTableRepELb0EEC2Ev(ptr noundef nonnull align 8 dereferenceable(8) %0) unnamed_addr #3 comdat align 2 {
  %2 = alloca ptr, align 8
  store ptr %0, ptr %2, align 8, !tbaa !1040
  %3 = load ptr, ptr %2, align 8
  %4 = getelementptr inbounds nuw %"struct.std::_Head_base.231", ptr %3, i32 0, i32 0
  store ptr null, ptr %4, align 8, !tbaa !1042
  ret void
}

; Function Attrs: mustprogress uwtable
define linkonce_odr void @_ZNSt11_Tuple_implILm1EJSt14default_deleteIN7rocksdb11MemTableRepEEEEC2Ev(ptr noundef nonnull align 1 dereferenceable(1) %0) unnamed_addr #5 comdat align 2 {
  %2 = alloca ptr, align 8
  store ptr %0, ptr %2, align 8, !tbaa !1038
  %3 = load ptr, ptr %2, align 8
  call void @_ZNSt10_Head_baseILm1ESt14default_deleteIN7rocksdb11MemTableRepEELb1EEC2Ev(ptr noundef nonnull align 1 dereferenceable(1) %3)
  ret void
}

; Function Attrs: mustprogress nounwind uwtable
define linkonce_odr noundef nonnull align 8 dereferenceable(8) ptr @_ZSt3getILm0EJPN7rocksdb11MemTableRepESt14default_deleteIS1_EEERNSt13tuple_elementIXT_ESt5tupleIJDpT0_EEE4typeERS9_(ptr noundef nonnull align 8 dereferenceable(8) %0) #3 comdat {
  %2 = alloca ptr, align 8
  store ptr %0, ptr %2, align 8, !tbaa !1034
  %3 = load ptr, ptr %2, align 8, !tbaa !1034
  %4 = call noundef nonnull align 8 dereferenceable(8) ptr @_ZSt12__get_helperILm0EPN7rocksdb11MemTableRepEJSt14default_deleteIS1_EEERT0_RSt11_Tuple_implIXT_EJS5_DpT1_EE(ptr noundef nonnull align 8 dereferenceable(8) %3) #4
  ret ptr %4
}

; Function Attrs: mustprogress uwtable
define linkonce_odr void @_ZNSt11_Tuple_implILm0EJPN7rocksdb11MemTableRepESt14default_deleteIS1_EEEC2Ev(ptr noundef nonnull align 8 dereferenceable(8) %0) unnamed_addr #5 comdat align 2 {
  %2 = alloca ptr, align 8
  store ptr %0, ptr %2, align 8, !tbaa !1036
  %3 = load ptr, ptr %2, align 8
  call void @_ZNSt11_Tuple_implILm1EJSt14default_deleteIN7rocksdb11MemTableRepEEEEC2Ev(ptr noundef nonnull align 1 dereferenceable(1) %3)
  call void @_ZNSt10_Head_baseILm0EPN7rocksdb11MemTableRepELb0EEC2Ev(ptr noundef nonnull align 8 dereferenceable(8) %3)
  ret void
}

; Function Attrs: mustprogress nounwind uwtable
define linkonce_odr noundef nonnull align 8 dereferenceable(8) ptr @_ZNSt15__uniq_ptr_implIN7rocksdb11MemTableRepESt14default_deleteIS1_EE6_M_ptrEv(ptr noundef nonnull align 8 dereferenceable(8) %0) #3 comdat align 2 {
  %2 = alloca ptr, align 8
  store ptr %0, ptr %2, align 8, !tbaa !1032
  %3 = load ptr, ptr %2, align 8
  %4 = getelementptr inbounds nuw %"class.std::__uniq_ptr_impl.226", ptr %3, i32 0, i32 0
  %5 = call noundef nonnull align 8 dereferenceable(8) ptr @_ZSt3getILm0EJPN7rocksdb11MemTableRepESt14default_deleteIS1_EEERNSt13tuple_elementIXT_ESt5tupleIJDpT0_EEE4typeERS9_(ptr noundef nonnull align 8 dereferenceable(8) %4) #4
  ret ptr %5
}

; Function Attrs: mustprogress nounwind uwtable
define linkonce_odr void @_ZNSt5tupleIJPN7rocksdb11MemTableRepESt14default_deleteIS1_EEEC2ILb1ETnNSt9enable_ifIXclsr17_TupleConstraintsIXT_ES2_S4_EE37__is_implicitly_default_constructibleEEbE4typeELb1EEEv(ptr noundef nonnull align 8 dereferenceable(8) %0) unnamed_addr #3 comdat align 2 personality ptr @__gxx_personality_v0 {
  %2 = alloca ptr, align 8
  store ptr %0, ptr %2, align 8, !tbaa !1034
  %3 = load ptr, ptr %2, align 8
  invoke void @_ZNSt11_Tuple_implILm0EJPN7rocksdb11MemTableRepESt14default_deleteIS1_EEEC2Ev(ptr noundef nonnull align 8 dereferenceable(8) %3)
          to label %4 unwind label %5

4:                                                ; preds = %1
  ret void

5:                                                ; preds = %1
  %6 = landingpad { ptr, i32 }
          catch ptr null
  %7 = extractvalue { ptr, i32 } %6, 0
  call void @__clang_call_terminate(ptr %7) #24
  unreachable
}

; Function Attrs: mustprogress nounwind uwtable
define linkonce_odr void @_ZNSt15__uniq_ptr_implIN7rocksdb11MemTableRepESt14default_deleteIS1_EEC2EPS1_(ptr noundef nonnull align 8 dereferenceable(8) %0, ptr noundef %1) unnamed_addr #3 comdat align 2 {
  %3 = alloca ptr, align 8
  %4 = alloca ptr, align 8
  store ptr %0, ptr %3, align 8, !tbaa !1032
  store ptr %1, ptr %4, align 8, !tbaa !1008
  %5 = load ptr, ptr %3, align 8
  %6 = getelementptr inbounds nuw %"class.std::__uniq_ptr_impl.226", ptr %5, i32 0, i32 0
  call void @_ZNSt5tupleIJPN7rocksdb11MemTableRepESt14default_deleteIS1_EEEC2ILb1ETnNSt9enable_ifIXclsr17_TupleConstraintsIXT_ES2_S4_EE37__is_implicitly_default_constructibleEEbE4typeELb1EEEv(ptr noundef nonnull align 8 dereferenceable(8) %6) #4
  %7 = load ptr, ptr %4, align 8, !tbaa !1008
  %8 = call noundef nonnull align 8 dereferenceable(8) ptr @_ZNSt15__uniq_ptr_implIN7rocksdb11MemTableRepESt14default_deleteIS1_EE6_M_ptrEv(ptr noundef nonnull align 8 dereferenceable(8) %5) #4
  store ptr %7, ptr %8, align 8, !tbaa !1008
  ret void
}

; Function Attrs: noinline noreturn nounwind uwtable
define linkonce_odr hidden void @__clang_call_terminate(ptr noundef %0) #14 comdat {
  %2 = call ptr @__cxa_begin_catch(ptr %0) #4
  call void @_ZSt9terminatev() #24
  unreachable
}

; Function Attrs: inlinehint mustprogress uwtable
define linkonce_odr void @_ZNSt15__uniq_ptr_dataIN7rocksdb11MemTableRepESt14default_deleteIS1_ELb1ELb1EECI2St15__uniq_ptr_implIS1_S3_EEPS1_(ptr noundef nonnull align 8 dereferenceable(8) %0, ptr noundef %1) unnamed_addr #8 comdat align 2 {
  %3 = alloca ptr, align 8
  %4 = alloca ptr, align 8
  store ptr %0, ptr %3, align 8, !tbaa !1030
  store ptr %1, ptr %4, align 8, !tbaa !1008
  %5 = load ptr, ptr %3, align 8
  %6 = load ptr, ptr %4, align 8, !tbaa !1008
  call void @_ZNSt15__uniq_ptr_implIN7rocksdb11MemTableRepESt14default_deleteIS1_EEC2EPS1_(ptr noundef nonnull align 8 dereferenceable(8) %5, ptr noundef %6)
  ret void
}

; Function Attrs: mustprogress nounwind uwtable
define linkonce_odr void @_ZNSt10unique_ptrIN7rocksdb11MemTableRepESt14default_deleteIS1_EEC2IS3_vEEPS1_(ptr noundef nonnull align 8 dereferenceable(8) %0, ptr noundef %1) unnamed_addr #3 comdat align 2 personality ptr @__gxx_personality_v0 {
  %3 = alloca ptr, align 8
  %4 = alloca ptr, align 8
  store ptr %0, ptr %3, align 8, !tbaa !1021
  store ptr %1, ptr %4, align 8, !tbaa !1008
  %5 = load ptr, ptr %3, align 8
  %6 = getelementptr inbounds nuw %"class.std::unique_ptr.224", ptr %5, i32 0, i32 0
  %7 = load ptr, ptr %4, align 8, !tbaa !1008
  invoke void @_ZNSt15__uniq_ptr_dataIN7rocksdb11MemTableRepESt14default_deleteIS1_ELb1ELb1EECI2St15__uniq_ptr_implIS1_S3_EEPS1_(ptr noundef nonnull align 8 dereferenceable(8) %6, ptr noundef %7)
          to label %8 unwind label %9

8:                                                ; preds = %2
  ret void

9:                                                ; preds = %2
  %10 = landingpad { ptr, i32 }
          catch ptr null
  %11 = extractvalue { ptr, i32 } %10, 0
  call void @__clang_call_terminate(ptr %11) #24
  unreachable
}

; Function Attrs: mustprogress nounwind uwtable
define linkonce_odr void @_ZN7rocksdb11MemTableRepC2EPNS_9AllocatorE(ptr noundef nonnull align 8 dereferenceable(16) %0, ptr noundef %1) unnamed_addr #3 comdat align 2 {
  %3 = alloca ptr, align 8
  %4 = alloca ptr, align 8
  store ptr %0, ptr %3, align 8, !tbaa !1008
  store ptr %1, ptr %4, align 8, !tbaa !999
  %5 = load ptr, ptr %3, align 8
  store ptr getelementptr inbounds inrange(-16, 192) ({ [26 x ptr] }, ptr @_ZTVN7rocksdb11MemTableRepE, i32 0, i32 0, i32 2), ptr %5, align 8, !tbaa !178
  %6 = getelementptr inbounds nuw %"class.rocksdb::MemTableRep", ptr %5, i32 0, i32 1
  %7 = load ptr, ptr %4, align 8, !tbaa !999
  store ptr %7, ptr %6, align 8, !tbaa !1020
  ret void
}

; Function Attrs: mustprogress uwtable
define internal void @_ZN7rocksdb4test12_GLOBAL__N_118SpecialMemTableRepC2EPNS_9AllocatorEPNS_11MemTableRepEi(ptr noundef nonnull align 8 dereferenceable(32) %0, ptr noundef %1, ptr noundef %2, i32 noundef %3) unnamed_addr #5 align 2 {
  %5 = alloca ptr, align 8
  %6 = alloca ptr, align 8
  %7 = alloca ptr, align 8
  %8 = alloca i32, align 4
  store ptr %0, ptr %5, align 8, !tbaa !1006
  store ptr %1, ptr %6, align 8, !tbaa !999
  store ptr %2, ptr %7, align 8, !tbaa !1008
  store i32 %3, ptr %8, align 4, !tbaa !52
  %9 = load ptr, ptr %5, align 8
  %10 = load ptr, ptr %6, align 8, !tbaa !999
  call void @_ZN7rocksdb11MemTableRepC2EPNS_9AllocatorE(ptr noundef nonnull align 8 dereferenceable(16) %9, ptr noundef %10)
  store ptr getelementptr inbounds inrange(-16, 192) ({ [26 x ptr] }, ptr @_ZTVN7rocksdb4test12_GLOBAL__N_118SpecialMemTableRepE, i32 0, i32 0, i32 2), ptr %9, align 8, !tbaa !178
  %11 = getelementptr inbounds nuw %"class.rocksdb::test::(anonymous namespace)::SpecialMemTableRep", ptr %9, i32 0, i32 1
  %12 = load ptr, ptr %7, align 8, !tbaa !1008
  call void @_ZNSt10unique_ptrIN7rocksdb11MemTableRepESt14default_deleteIS1_EEC2IS3_vEEPS1_(ptr noundef nonnull align 8 dereferenceable(8) %11, ptr noundef %12) #4
  %13 = getelementptr inbounds nuw %"class.rocksdb::test::(anonymous namespace)::SpecialMemTableRep", ptr %9, i32 0, i32 2
  %14 = load i32, ptr %8, align 4, !tbaa !52
  store i32 %14, ptr %13, align 8, !tbaa !1010
  %15 = getelementptr inbounds nuw %"class.rocksdb::test::(anonymous namespace)::SpecialMemTableRep", ptr %9, i32 0, i32 3
  store i32 0, ptr %15, align 4, !tbaa !1019
  ret void
}

; Function Attrs: mustprogress uwtable
define internal noundef ptr @_ZN7rocksdb4test12_GLOBAL__N_122SpecialSkipListFactory17CreateMemTableRepERKNS_11MemTableRep13KeyComparatorEPNS_9AllocatorEPKNS_14SliceTransformEPNS_6LoggerE(ptr noundef nonnull align 8 dereferenceable(76) %0, ptr noundef nonnull align 8 dereferenceable(8) %1, ptr noundef %2, ptr noundef %3, ptr noundef %4) unnamed_addr #5 align 2 personality ptr @__gxx_personality_v0 {
  %6 = alloca ptr, align 8
  %7 = alloca ptr, align 8
  %8 = alloca ptr, align 8
  %9 = alloca ptr, align 8
  %10 = alloca ptr, align 8
  %11 = alloca ptr, align 8
  %12 = alloca i32, align 4
  store ptr %0, ptr %6, align 8, !tbaa !540
  store ptr %1, ptr %7, align 8, !tbaa !997
  store ptr %2, ptr %8, align 8, !tbaa !999
  store ptr %3, ptr %9, align 8, !tbaa !439
  store ptr %4, ptr %10, align 8, !tbaa !777
  %13 = load ptr, ptr %6, align 8
  %14 = call noalias noundef nonnull ptr @_Znwm(i64 noundef 32) #27
  %15 = load ptr, ptr %8, align 8, !tbaa !999
  %16 = getelementptr inbounds nuw %"class.rocksdb::test::(anonymous namespace)::SpecialSkipListFactory", ptr %13, i32 0, i32 1
  %17 = load ptr, ptr %7, align 8, !tbaa !997
  %18 = load ptr, ptr %8, align 8, !tbaa !999
  %19 = load ptr, ptr %9, align 8, !tbaa !439
  %20 = invoke noundef ptr @_ZN7rocksdb15SkipListFactory17CreateMemTableRepERKNS_11MemTableRep13KeyComparatorEPNS_9AllocatorEPKNS_14SliceTransformEPNS_6LoggerE(ptr noundef nonnull align 8 dereferenceable(40) %16, ptr noundef nonnull align 8 dereferenceable(8) %17, ptr noundef %18, ptr noundef %19, ptr noundef null)
          to label %21 unwind label %25

21:                                               ; preds = %5
  %22 = getelementptr inbounds nuw %"class.rocksdb::test::(anonymous namespace)::SpecialSkipListFactory", ptr %13, i32 0, i32 2
  %23 = load i32, ptr %22, align 8, !tbaa !542
  invoke void @_ZN7rocksdb4test12_GLOBAL__N_118SpecialMemTableRepC2EPNS_9AllocatorEPNS_11MemTableRepEi(ptr noundef nonnull align 8 dereferenceable(32) %14, ptr noundef %15, ptr noundef %20, i32 noundef %23)
          to label %24 unwind label %25

24:                                               ; preds = %21
  ret ptr %14

25:                                               ; preds = %21, %5
  %26 = landingpad { ptr, i32 }
          cleanup
  %27 = extractvalue { ptr, i32 } %26, 0
  store ptr %27, ptr %11, align 8
  %28 = extractvalue { ptr, i32 } %26, 1
  store i32 %28, ptr %12, align 4
  call void @_ZdlPvm(ptr noundef %14, i64 noundef 32) #28
  br label %29

29:                                               ; preds = %25
  %30 = load ptr, ptr %11, align 8
  %31 = load i32, ptr %12, align 4
  %32 = insertvalue { ptr, i32 } poison, ptr %30, 0
  %33 = insertvalue { ptr, i32 } %32, i32 %31, 1
  resume { ptr, i32 } %33
}