; Function Attrs: mustprogress uwtable
define internal noundef nonnull ptr @_ZN7rocksdb4test12_GLOBAL__N_122SpecialSkipListFactory17CreateMemTableRepERKNS_11MemTableRep13KeyComparatorEPNS_9AllocatorEPKNS_14SliceTransformEPNS_6LoggerE(ptr noundef nonnull align 8 dereferenceable(76) %0, ptr noundef nonnull align 8 dereferenceable(8) %1, ptr noundef %2, ptr noundef %3, ptr readnone captures(none) %4) unnamed_addr #7 align 2 personality ptr @__gxx_personality_v0 {
  %6 = tail call noalias noundef nonnull dereferenceable(32) ptr @_Znwm(i64 noundef 32) #37
  %7 = getelementptr inbounds nuw i8, ptr %0, i64 32
  %8 = invoke noundef ptr @_ZN7rocksdb15SkipListFactory17CreateMemTableRepERKNS_11MemTableRep13KeyComparatorEPNS_9AllocatorEPKNS_14SliceTransformEPNS_6LoggerE(ptr noundef nonnull align 8 dereferenceable(40) %7, ptr noundef nonnull align 8 dereferenceable(8) %1, ptr noundef %2, ptr noundef %3, ptr noundef null)
          to label %9 unwind label %16

9:                                                ; preds = %5
  %10 = getelementptr inbounds nuw i8, ptr %0, i64 72
  %11 = load i32, ptr %10, align 8, !tbaa !488
  %12 = getelementptr inbounds nuw i8, ptr %6, i64 8
  store ptr %2, ptr %12, align 8, !tbaa !573
  store ptr getelementptr inbounds nuw inrange(-16, 192) (i8, ptr @_ZTVN7rocksdb4test12_GLOBAL__N_118SpecialMemTableRepE, i64 16), ptr %6, align 8, !tbaa !25
  %13 = getelementptr inbounds nuw i8, ptr %6, i64 16
  store ptr %8, ptr %13, align 8, !tbaa !576
  %14 = getelementptr inbounds nuw i8, ptr %6, i64 24
  store i32 %11, ptr %14, align 8, !tbaa !578
  %15 = getelementptr inbounds nuw i8, ptr %6, i64 28
  store i32 0, ptr %15, align 4, !tbaa !586
  ret ptr %6

16:                                               ; preds = %5
  %17 = landingpad { ptr, i32 }
          cleanup
  tail call void @_ZdlPvm(ptr noundef nonnull %6, i64 noundef 32) #33
  resume { ptr, i32 } %17
}